; Function Attrs: mustprogress nounwind uwtable
define hidden noundef range(i32 0, 32) i32 @_ZN12JvmtiEnvBase18get_frame_locationEP10javaVFrameiPP10_jmethodIDPl(ptr nocapture noundef nonnull readnone align 8 dereferenceable(460) %0, ptr noundef %1, i32 noundef %2, ptr nocapture noundef writeonly %3, ptr nocapture noundef writeonly %4) local_unnamed_addr #0 align 2 {
  %6 = icmp ne ptr %1, null
  %7 = icmp sgt i32 %2, 0
  %8 = and i1 %6, %7
  br i1 %8, label %.lr.ph, label %._crit_edge

.lr.ph:                                           ; preds = %5, %.lr.ph
  %.01316 = phi i32 [ %10, %.lr.ph ], [ 0, %5 ]
  %.01415 = phi ptr [ %9, %.lr.ph ], [ %1, %5 ]
  %9 = tail call noundef ptr @_ZNK6vframe11java_senderEv(ptr noundef nonnull align 8 dereferenceable(5064) %.01415) #18
  %10 = add nuw nsw i32 %.01316, 1
  %11 = icmp ne ptr %9, null
  %12 = icmp slt i32 %10, %2
  %13 = select i1 %11, i1 %12, i1 false
  br i1 %13, label %.lr.ph, label %._crit_edge, !llvm.loop !54

._crit_edge:                                      ; preds = %.lr.ph, %5
  %.014.lcssa = phi ptr [ %1, %5 ], [ %9, %.lr.ph ]
  %14 = icmp eq ptr %.014.lcssa, null
  br i1 %14, label %30, label %15

15:                                               ; preds = %._crit_edge
  %16 = load ptr, ptr %.014.lcssa, align 8
  %17 = getelementptr inbounds i8, ptr %16, i64 48
  %18 = load ptr, ptr %17, align 8
  %19 = tail call noundef ptr %18(ptr noundef nonnull align 8 dereferenceable(5064) %.014.lcssa) #18
  %20 = getelementptr inbounds i8, ptr %19, i64 40
  %.sroa.0.0.copyload.i.i = load i32, ptr %20, align 8
  %21 = and i32 %.sroa.0.0.copyload.i.i, 256
  %.not = icmp eq i32 %21, 0
  br i1 %.not, label %22, label %28

22:                                               ; preds = %15
  %23 = load ptr, ptr %.014.lcssa, align 8
  %24 = getelementptr inbounds i8, ptr %23, i64 56
  %25 = load ptr, ptr %24, align 8
  %26 = tail call noundef i32 %25(ptr noundef nonnull align 8 dereferenceable(5064) %.014.lcssa) #18
  %27 = sext i32 %26 to i64
  br label %28

28:                                               ; preds = %15, %22
  %storemerge = phi i64 [ %27, %22 ], [ -1, %15 ]
  store i64 %storemerge, ptr %4, align 8
  %29 = tail call noundef ptr @_ZN6Method10jmethod_idEv(ptr noundef nonnull align 8 dereferenceable(88) %19) #18
  store ptr %29, ptr %3, align 8
  br label %30

30:                                               ; preds = %._crit_edge, %28
  %.0 = phi i32 [ 0, %28 ], [ 31, %._crit_edge ]
  ret i32 %.0
}